; Function Attrs: mustprogress uwtable
define void @umutablecptrie_setRange_77(ptr noundef captures(none) %0, i32 noundef %1, i32 noundef %2, i32 noundef %3, ptr noundef captures(none) %4) local_unnamed_addr #0 {
  %6 = load i32, ptr %4, align 4, !tbaa !3
  %7 = icmp slt i32 %6, 1
  br i1 %7, label %8, label %9

8:                                                ; preds = %5
  tail call fastcc void @_ZN6icu_7712_GLOBAL__N_120MutableCodePointTrie8setRangeEiijR10UErrorCode(ptr noundef nonnull align 8 dereferenceable(69696) %0, i32 noundef %1, i32 noundef %2, i32 noundef %3, ptr noundef nonnull align 4 dereferenceable(4) %4)
  br label %9

9:                                                ; preds = %5, %8
  ret void
}